(lp1
(lp2
I2
aI0
aI4
aI0
aa(lp3
I0
aI0
aI0
aI0
aa(lp4
I0
aI0
aI0
aI0
aa(lp5
I0
aI0
aI0
aI0
aa(lp6
I3
aI0
aI0
aI0
aa(lp7
I6
aI0
aI0
aI0
aa(lp8
I10
aI2
aI0
aI0
aa(lp9
I10
aI4
aI0
aI0
aa(lp10
I16
aI0
aI4
aI0
aa(lp11
I8
aI0
aI6
aI0
aa(lp12
I16
aI0
aI8
aI0
aa(lp13
I12
aI2
aI2
aI0
aa(lp14
I0
aI0
aI0
aI0
aa.